; ModuleID = '44/1228.c'
source_filename = "44/1228.c"
target datalayout = "e-m:e-p270:32:32-p271:32:32-p272:64:64-i64:64-f80:128-n8:16:32:64-S128"
target triple = "x86_64-pc-linux-gnu"

@.str = private unnamed_addr constant [3 x i8] c"%d\00", align 1
@.str.1 = private unnamed_addr constant [4 x i8] c"%d\0A\00", align 1

; Function Attrs: noinline nounwind uwtable
define dso_local i32 @main() #0 {
  %1 = alloca i32, align 4
  %2 = alloca [6 x i32], align 16
  %3 = alloca i32, align 4
  %4 = alloca i32, align 4
  %5 = alloca [6 x i32], align 16
  %6 = alloca i32, align 4
  %7 = alloca i32, align 4
  store i32 0, i32* %1, align 4
  store i32 0, i32* %3, align 4
  br label %8

8:                                                ; preds = %16, %0
  %9 = load i32, i32* %3, align 4
  %10 = icmp slt i32 %9, 6
  br i1 %10, label %11, label %19

11:                                               ; preds = %8
  %12 = load i32, i32* %3, align 4
  %13 = sext i32 %12 to i64
  %14 = getelementptr inbounds [6 x i32], [6 x i32]* %2, i64 0, i64 %13
  %15 = call i32 (i8*, ...) @__isoc99_scanf(i8* getelementptr inbounds ([3 x i8], [3 x i8]* @.str, i64 0, i64 0), i32* %14)
  br label %16

16:                                               ; preds = %11
  %17 = load i32, i32* %3, align 4
  %18 = add nsw i32 %17, 1
  store i32 %18, i32* %3, align 4
  br label %8

19:                                               ; preds = %8
  store i32 0, i32* %4, align 4
  br label %20

20:                                               ; preds = %37, %19
  %21 = load i32, i32* %4, align 4
  %22 = icmp slt i32 %21, 6
  br i1 %22, label %23, label %40

23:                                               ; preds = %20
  %24 = load i32, i32* %4, align 4
  %25 = sext i32 %24 to i64
  %26 = getelementptr inbounds [6 x i32], [6 x i32]* %2, i64 0, i64 %25
  %27 = load i32, i32* %26, align 4
  %28 = call i32 @reverse(i32 %27)
  %29 = load i32, i32* %4, align 4
  %30 = sext i32 %29 to i64
  %31 = getelementptr inbounds [6 x i32], [6 x i32]* %5, i64 0, i64 %30
  store i32 %28, i32* %31, align 4
  %32 = load i32, i32* %4, align 4
  %33 = sext i32 %32 to i64
  %34 = getelementptr inbounds [6 x i32], [6 x i32]* %5, i64 0, i64 %33
  %35 = load i32, i32* %34, align 4
  %36 = call i32 (i8*, ...) @printf(i8* getelementptr inbounds ([4 x i8], [4 x i8]* @.str.1, i64 0, i64 0), i32 %35)
  br label %37

37:                                               ; preds = %23
  %38 = load i32, i32* %4, align 4
  %39 = add nsw i32 %38, 1
  store i32 %39, i32* %4, align 4
  br label %20

40:                                               ; preds = %20
  ret i32 0
}

declare dso_local i32 @__isoc99_scanf(i8*, ...) #1

; Function Attrs: noinline nounwind uwtable
define dso_local i32 @reverse(i32 %0) #0 {
  %2 = alloca i32, align 4
  %3 = alloca i32, align 4
  %4 = alloca i32, align 4
  store i32 %0, i32* %2, align 4
  store i32 0, i32* %4, align 4
  %5 = load i32, i32* %2, align 4
  store i32 %5, i32* %3, align 4
  br label %6

6:                                                ; preds = %9, %1
  %7 = load i32, i32* %2, align 4
  %8 = icmp ne i32 %7, 0
  br i1 %8, label %9, label %17

9:                                                ; preds = %6
  %10 = load i32, i32* %4, align 4
  %11 = mul nsw i32 %10, 10
  %12 = load i32, i32* %2, align 4
  %13 = srem i32 %12, 10
  %14 = add nsw i32 %11, %13
  store i32 %14, i32* %4, align 4
  %15 = load i32, i32* %2, align 4
  %16 = sdiv i32 %15, 10
  store i32 %16, i32* %2, align 4
  br label %6

17:                                               ; preds = %6
  %18 = load i32, i32* %4, align 4
  store i32 %18, i32* %2, align 4
  %19 = load i32, i32* %2, align 4
  ret i32 %19
}

declare dso_local i32 @printf(i8*, ...) #1


!llvm.module.flags = !{!0}
!llvm.ident = !{!1}

!0 = !{i32 1, !"wchar_size", i32 4}
!1 = !{!"clang version 10.0.0-4ubuntu1 "}
